Certificate:
    Data:
        Version: 3 (0x2)
        Serial Number: 4097 (0x1001)
    Signature Algorithm: sha256WithRSAEncryption
        Issuer: O=NodeOPCUA, CN=NodeOPCUA
        Validity
            Not Before: Sep 26 14:37:13 2018 GMT
            Not After : Sep 26 14:37:13 2019 GMT
        Subject: O=NodeOPCUA, CN=NodeOPCUA
        Subject Public Key Info:
            Public Key Algorithm: rsaEncryption
                Public-Key: (1024 bit)
                Modulus:
                    00:ed:0b:95:3f:5a:67:3f:64:cb:5f:96:54:4f:25:
                    53:06:ff:b3:4a:e4:dc:a0:99:87:02:90:d1:2c:e5:
                    ed:3a:1d:90:8b:91:e9:1d:07:4d:2e:e4:80:66:0b:
                    a5:33:3b:f6:d2:8f:76:06:3a:81:84:f6:3a:f8:e8:
                    a9:95:63:fa:cb:be:0a:9f:cd:7b:be:f6:fe:cb:11:
                    10:cb:da:7e:24:21:11:79:ed:82:20:19:51:d9:c3:
                    6d:e7:d7:8c:1e:7e:e1:49:9d:aa:6e:08:9b:ad:96:
                    c1:22:7e:1d:81:43:92:64:ed:8a:8d:92:54:ec:a1:
                    c3:0c:b4:f8:7a:d9:2c:b6:7f
                Exponent: 65537 (0x10001)
        X509v3 extensions:
            X509v3 Basic Constraints: critical
                CA:FALSE
            X509v3 Subject Key Identifier:
                50:05:95:96:5A:E6:CA:E5:E0:15:BC:78:46:99:28:09:53:E8:88:50
            X509v3 Authority Key Identifier:
                keyid:50:05:95:96:5A:E6:CA:E5:E0:15:BC:78:46:99:28:09:53:E8:88:50
                DirName:/O=NodeOPCUA/CN=NodeOPCUA
                serial:10:01

            X509v3 Subject Alternative Name:
                URI:urn:4333c6eb613e:NodeOPCUA-Client, DNS:localhost, DNS:4333c6eb613e
            Netscape Comment:
                OpenSSL Generated Certificate
            X509v3 Key Usage: critical
                Digital Signature, Non Repudiation, Key Encipherment, Data Encipherment, Key Agreement, Certificate Sign
            X509v3 Extended Key Usage: critical
                TLS Web Server Authentication, TLS Web Client Authentication
    Signature Algorithm: sha256WithRSAEncryption
         48:23:2b:4c:c3:3a:29:86:9d:73:85:b6:41:b3:08:3b:84:be:
         f5:80:ac:6f:ef:79:df:cb:96:d9:bc:c1:22:fc:cb:8b:2d:3d:
         2d:86:e8:17:36:e6:dc:e5:55:af:98:b7:4e:43:bc:51:99:f2:
         e4:14:3f:72:80:09:05:72:a3:42:4d:92:b6:5f:c5:21:52:cf:
         10:6d:9c:8f:56:c1:90:8b:30:a0:af:20:72:54:46:77:c7:3b:
         4f:6f:ee:20:d6:2f:b7:1e:3d:55:ea:bf:b9:ea:42:70:da:30:
         b6:98:ac:f0:5b:a8:58:f1:5a:68:9d:29:02:44:90:d5:c7:2f:
         c8:c7
-----BEGIN CERTIFICATE-----
MIIC+DCCAmGgAwIBAgICEAEwDQYJKoZIhvcNAQELBQAwKDESMBAGA1UEChMJTm9k
ZU9QQ1VBMRIwEAYDVQQDEwlOb2RlT1BDVUEwIhgPMjAxODA5MjYxNDM3MTNaGA8y
MDE5MDkyNjE0MzcxM1owKDESMBAGA1UEChMJTm9kZU9QQ1VBMRIwEAYDVQQDEwlO
b2RlT1BDVUEwgZ8wDQYJKoZIhvcNAQEBBQADgY0AMIGJAoGBAO0LlT9aZz9ky1+W
VE8lUwb/s0rk3KCZhwKQ0Szl7TodkIuR6R0HTS7kgGYLpTM79tKPdgY6gYT2Ovjo
qZVj+su+Cp/Ne772/ssREMvafiQhEXntgiAZUdnDbefXjB5+4Umdqm4Im62WwSJ+
HYFDkmTtio2SVOyhwwy0+HrZLLZ/AgMBAAGjggErMIIBJzAMBgNVHRMBAf8EAjAA
MB0GA1UdDgQWBBRQBZWWWubK5eAVvHhGmSgJU+iIUDBRBgNVHSMESjBIgBRQBZWW
WubK5eAVvHhGmSgJU+iIUKEspCowKDESMBAGA1UEChMJTm9kZU9QQ1VBMRIwEAYD
VQQDEwlOb2RlT1BDVUGCAhABMEUGA1UdEQQ+MDyGIXVybjo0MzMzYzZlYjYxM2U6
Tm9kZU9QQ1VBLUNsaWVudIIJbG9jYWxob3N0ggw0MzMzYzZlYjYxM2UwLAYJYIZI
AYb4QgENBB8WHU9wZW5TU0wgR2VuZXJhdGVkIENlcnRpZmljYXRlMA4GA1UdDwEB
/wQEAwIC/DAgBgNVHSUBAf8EFjAUBggrBgEFBQcDAQYIKwYBBQUHAwIwDQYJKoZI
hvcNAQELBQADgYEASCMrTMM6KYadc4W2QbMIO4S+9YCsb+9538uW2bzBIvzLiy09
LYboFzbm3OVVr5i3TkO8UZny5BQ/coAJBXKjQk2Stl/FIVLPEG2cj1bBkIswoK8g
clRGd8c7T2/uINYvtx49Veq/uepCcNowtpis8FuoWPFaaJ0pAkSQ1ccvyMc=
-----END CERTIFICATE-----
