Certificate:
    Data:
        Version: 3 (0x2)
        Serial Number: 4097 (0x1001)
    Signature Algorithm: sha256WithRSAEncryption
        Issuer: O=NodeOPCUA, CN=NodeOPCUA
        Validity
            Not Before: Sep 26 13:49:04 2018 GMT
            Not After : Sep 26 13:49:04 2019 GMT
        Subject: O=NodeOPCUA, CN=NodeOPCUA
        Subject Public Key Info:
            Public Key Algorithm: rsaEncryption
                Public-Key: (1024 bit)
                Modulus:
                    00:cd:34:7e:8c:58:bb:24:be:76:d2:c8:08:88:09:
                    f4:8f:d4:b5:f9:3f:a5:6b:ac:69:fe:eb:be:7d:ca:
                    42:41:a8:48:a3:e2:4a:cd:fb:fb:a4:0e:78:33:22:
                    a5:7b:7b:d2:fe:8e:d8:9d:78:da:f6:64:92:e6:02:
                    83:6a:7a:19:4a:b9:1d:d6:7c:71:fd:18:a5:00:6b:
                    0b:4b:cd:54:e1:a2:88:27:4d:96:9c:1c:d0:19:93:
                    ba:5e:d6:88:f7:c0:e4:a4:3c:e9:c3:cf:16:74:34:
                    a4:00:74:c1:38:19:23:09:32:10:d9:b5:53:f3:2d:
                    8d:45:e0:ce:be:67:ad:2f:4d
                Exponent: 65537 (0x10001)
        X509v3 extensions:
            X509v3 Basic Constraints: critical
                CA:FALSE
            X509v3 Subject Key Identifier: 
                0C:5F:C8:BE:5D:A1:0F:71:E5:EA:44:B9:A3:28:D9:B4:7D:2B:5D:18
            X509v3 Authority Key Identifier: 
                keyid:0C:5F:C8:BE:5D:A1:0F:71:E5:EA:44:B9:A3:28:D9:B4:7D:2B:5D:18
                DirName:/O=NodeOPCUA/CN=NodeOPCUA
                serial:10:01

            X509v3 Subject Alternative Name: 
                URI:urn:Lukass-MacBook-Pro.local:NodeOPCUA-Client, DNS:localhost, DNS:Lukass-MacBook-Pro.local
            Netscape Comment: 
                OpenSSL Generated Certificate
            X509v3 Key Usage: critical
                Digital Signature, Non Repudiation, Key Encipherment, Data Encipherment, Key Agreement, Certificate Sign
            X509v3 Extended Key Usage: critical
                TLS Web Server Authentication, TLS Web Client Authentication
    Signature Algorithm: sha256WithRSAEncryption
         8c:2e:25:2e:40:c5:78:89:51:37:51:1d:fb:47:a0:9d:e3:ad:
         fe:5c:55:69:ec:85:2e:35:46:a3:13:40:49:a7:b5:ed:e5:c0:
         71:ca:f8:92:52:7a:b4:19:71:e6:9c:a9:c2:57:90:16:de:8a:
         a0:21:98:64:f5:47:9f:73:c8:28:a1:ef:8b:e7:7b:65:ea:5e:
         25:1b:cf:72:25:4a:97:04:73:2a:e4:8f:8b:b7:a0:b2:c1:77:
         66:8f:bb:86:3c:2e:f3:6b:02:de:78:43:0a:e2:13:5c:f1:69:
         33:cb:12:26:f8:29:b5:8c:27:89:6a:0b:ef:f8:a7:62:b3:92:
         b0:b6
-----BEGIN CERTIFICATE-----
MIIDEDCCAnmgAwIBAgICEAEwDQYJKoZIhvcNAQELBQAwKDESMBAGA1UEChMJTm9k
ZU9QQ1VBMRIwEAYDVQQDEwlOb2RlT1BDVUEwIhgPMjAxODA5MjYxMzQ5MDRaGA8y
MDE5MDkyNjEzNDkwNFowKDESMBAGA1UEChMJTm9kZU9QQ1VBMRIwEAYDVQQDEwlO
b2RlT1BDVUEwgZ8wDQYJKoZIhvcNAQEBBQADgY0AMIGJAoGBAM00foxYuyS+dtLI
CIgJ9I/Utfk/pWusaf7rvn3KQkGoSKPiSs37+6QOeDMipXt70v6O2J142vZkkuYC
g2p6GUq5HdZ8cf0YpQBrC0vNVOGiiCdNlpwc0BmTul7WiPfA5KQ86cPPFnQ0pAB0
wTgZIwkyENm1U/MtjUXgzr5nrS9NAgMBAAGjggFDMIIBPzAMBgNVHRMBAf8EAjAA
MB0GA1UdDgQWBBQMX8i+XaEPceXqRLmjKNm0fStdGDBRBgNVHSMESjBIgBQMX8i+
XaEPceXqRLmjKNm0fStdGKEspCowKDESMBAGA1UEChMJTm9kZU9QQ1VBMRIwEAYD
VQQDEwlOb2RlT1BDVUGCAhABMF0GA1UdEQRWMFSGLXVybjpMdWthc3MtTWFjQm9v
ay1Qcm8ubG9jYWw6Tm9kZU9QQ1VBLUNsaWVudIIJbG9jYWxob3N0ghhMdWthc3Mt
TWFjQm9vay1Qcm8ubG9jYWwwLAYJYIZIAYb4QgENBB8WHU9wZW5TU0wgR2VuZXJh
dGVkIENlcnRpZmljYXRlMA4GA1UdDwEB/wQEAwIC/DAgBgNVHSUBAf8EFjAUBggr
BgEFBQcDAQYIKwYBBQUHAwIwDQYJKoZIhvcNAQELBQADgYEAjC4lLkDFeIlRN1Ed
+0egneOt/lxVaeyFLjVGoxNASae17eXAccr4klJ6tBlx5pypwleQFt6KoCGYZPVH
n3PIKKHvi+d7ZepeJRvPciVKlwRzKuSPi7egssF3Zo+7hjwu82sC3nhDCuITXPFp
M8sSJvgptYwniWoL7/inYrOSsLY=
-----END CERTIFICATE-----
